target datalayout = "e-m:e-p270:32:32-p271:32:32-p272:64:64-i64:64-i128:128-f80:128-n8:16:32:64-S128"
target triple = "x86_64-pc-linux-gnu"

%"class.pxrInternal_v0_24__pxrReserved__::GfMatrix4f" = type { %"class.pxrInternal_v0_24__pxrReserved__::GfMatrixData" }
%"class.pxrInternal_v0_24__pxrReserved__::GfMatrixData" = type { [16 x float] }

; Function Attrs: mustprogress nounwind uwtable
define linkonce_odr noundef ptr @_ZN32pxrInternal_v0_24__pxrReserved__12GfMatrixDataIfLi4ELi4EEixEi(ptr noundef nonnull align 4 dereferenceable(64) %0, i32 noundef %1) #2 comdat align 2 {
  %3 = alloca ptr, align 8
  %4 = alloca i32, align 4
  store ptr %0, ptr %3, align 8
  store i32 %1, ptr %4, align 4
  %5 = load ptr, ptr %3, align 8
  %6 = getelementptr inbounds nuw %"class.pxrInternal_v0_24__pxrReserved__::GfMatrixData", ptr %5, i32 0, i32 0
  %7 = getelementptr inbounds [16 x float], ptr %6, i64 0, i64 0
  %8 = load i32, ptr %4, align 4
  %9 = mul nsw i32 %8, 4
  %10 = sext i32 %9 to i64
  %11 = getelementptr inbounds float, ptr %7, i64 %10
  ret ptr %11
}

; Function Attrs: mustprogress nounwind uwtable
define linkonce_odr noundef ptr @_ZNK32pxrInternal_v0_24__pxrReserved__12GfMatrixDataIfLi4ELi4EEixEi(ptr noundef nonnull align 4 dereferenceable(64) %0, i32 noundef %1) #2 comdat align 2 {
  %3 = alloca ptr, align 8
  %4 = alloca i32, align 4
  store ptr %0, ptr %3, align 8
  store i32 %1, ptr %4, align 4
  %5 = load ptr, ptr %3, align 8
  %6 = getelementptr inbounds nuw %"class.pxrInternal_v0_24__pxrReserved__::GfMatrixData", ptr %5, i32 0, i32 0
  %7 = getelementptr inbounds [16 x float], ptr %6, i64 0, i64 0
  %8 = load i32, ptr %4, align 4
  %9 = mul nsw i32 %8, 4
  %10 = sext i32 %9 to i64
  %11 = getelementptr inbounds float, ptr %7, i64 %10
  ret ptr %11
}

; Function Attrs: mustprogress uwtable
define void @_ZNK32pxrInternal_v0_24__pxrReserved__10GfMatrix4f12GetTransposeEv(ptr dead_on_unwind noalias writable sret(%"class.pxrInternal_v0_24__pxrReserved__::GfMatrix4f") align 4 %0, ptr noundef nonnull align 4 dereferenceable(64) %1) #0 align 2 {
  %3 = alloca ptr, align 8
  store ptr %1, ptr %3, align 8
  %4 = load ptr, ptr %3, align 8
  %5 = getelementptr inbounds nuw %"class.pxrInternal_v0_24__pxrReserved__::GfMatrix4f", ptr %4, i32 0, i32 0
  %6 = call noundef ptr @_ZNK32pxrInternal_v0_24__pxrReserved__12GfMatrixDataIfLi4ELi4EEixEi(ptr noundef nonnull align 4 dereferenceable(64) %5, i32 noundef 0)
  %7 = getelementptr inbounds float, ptr %6, i64 0
  %8 = load float, ptr %7, align 4
  %9 = getelementptr inbounds nuw %"class.pxrInternal_v0_24__pxrReserved__::GfMatrix4f", ptr %0, i32 0, i32 0
  %10 = call noundef ptr @_ZN32pxrInternal_v0_24__pxrReserved__12GfMatrixDataIfLi4ELi4EEixEi(ptr noundef nonnull align 4 dereferenceable(64) %9, i32 noundef 0)
  %11 = getelementptr inbounds float, ptr %10, i64 0
  store float %8, ptr %11, align 4
  %12 = getelementptr inbounds nuw %"class.pxrInternal_v0_24__pxrReserved__::GfMatrix4f", ptr %4, i32 0, i32 0
  %13 = call noundef ptr @_ZNK32pxrInternal_v0_24__pxrReserved__12GfMatrixDataIfLi4ELi4EEixEi(ptr noundef nonnull align 4 dereferenceable(64) %12, i32 noundef 0)
  %14 = getelementptr inbounds float, ptr %13, i64 1
  %15 = load float, ptr %14, align 4
  %16 = getelementptr inbounds nuw %"class.pxrInternal_v0_24__pxrReserved__::GfMatrix4f", ptr %0, i32 0, i32 0
  %17 = call noundef ptr @_ZN32pxrInternal_v0_24__pxrReserved__12GfMatrixDataIfLi4ELi4EEixEi(ptr noundef nonnull align 4 dereferenceable(64) %16, i32 noundef 1)
  %18 = getelementptr inbounds float, ptr %17, i64 0
  store float %15, ptr %18, align 4
  %19 = getelementptr inbounds nuw %"class.pxrInternal_v0_24__pxrReserved__::GfMatrix4f", ptr %4, i32 0, i32 0
  %20 = call noundef ptr @_ZNK32pxrInternal_v0_24__pxrReserved__12GfMatrixDataIfLi4ELi4EEixEi(ptr noundef nonnull align 4 dereferenceable(64) %19, i32 noundef 0)
  %21 = getelementptr inbounds float, ptr %20, i64 2
  %22 = load float, ptr %21, align 4
  %23 = getelementptr inbounds nuw %"class.pxrInternal_v0_24__pxrReserved__::GfMatrix4f", ptr %0, i32 0, i32 0
  %24 = call noundef ptr @_ZN32pxrInternal_v0_24__pxrReserved__12GfMatrixDataIfLi4ELi4EEixEi(ptr noundef nonnull align 4 dereferenceable(64) %23, i32 noundef 2)
  %25 = getelementptr inbounds float, ptr %24, i64 0
  store float %22, ptr %25, align 4
  %26 = getelementptr inbounds nuw %"class.pxrInternal_v0_24__pxrReserved__::GfMatrix4f", ptr %4, i32 0, i32 0
  %27 = call noundef ptr @_ZNK32pxrInternal_v0_24__pxrReserved__12GfMatrixDataIfLi4ELi4EEixEi(ptr noundef nonnull align 4 dereferenceable(64) %26, i32 noundef 0)
  %28 = getelementptr inbounds float, ptr %27, i64 3
  %29 = load float, ptr %28, align 4
  %30 = getelementptr inbounds nuw %"class.pxrInternal_v0_24__pxrReserved__::GfMatrix4f", ptr %0, i32 0, i32 0
  %31 = call noundef ptr @_ZN32pxrInternal_v0_24__pxrReserved__12GfMatrixDataIfLi4ELi4EEixEi(ptr noundef nonnull align 4 dereferenceable(64) %30, i32 noundef 3)
  %32 = getelementptr inbounds float, ptr %31, i64 0
  store float %29, ptr %32, align 4
  %33 = getelementptr inbounds nuw %"class.pxrInternal_v0_24__pxrReserved__::GfMatrix4f", ptr %4, i32 0, i32 0
  %34 = call noundef ptr @_ZNK32pxrInternal_v0_24__pxrReserved__12GfMatrixDataIfLi4ELi4EEixEi(ptr noundef nonnull align 4 dereferenceable(64) %33, i32 noundef 1)
  %35 = getelementptr inbounds float, ptr %34, i64 0
  %36 = load float, ptr %35, align 4
  %37 = getelementptr inbounds nuw %"class.pxrInternal_v0_24__pxrReserved__::GfMatrix4f", ptr %0, i32 0, i32 0
  %38 = call noundef ptr @_ZN32pxrInternal_v0_24__pxrReserved__12GfMatrixDataIfLi4ELi4EEixEi(ptr noundef nonnull align 4 dereferenceable(64) %37, i32 noundef 0)
  %39 = getelementptr inbounds float, ptr %38, i64 1
  store float %36, ptr %39, align 4
  %40 = getelementptr inbounds nuw %"class.pxrInternal_v0_24__pxrReserved__::GfMatrix4f", ptr %4, i32 0, i32 0
  %41 = call noundef ptr @_ZNK32pxrInternal_v0_24__pxrReserved__12GfMatrixDataIfLi4ELi4EEixEi(ptr noundef nonnull align 4 dereferenceable(64) %40, i32 noundef 1)
  %42 = getelementptr inbounds float, ptr %41, i64 1
  %43 = load float, ptr %42, align 4
  %44 = getelementptr inbounds nuw %"class.pxrInternal_v0_24__pxrReserved__::GfMatrix4f", ptr %0, i32 0, i32 0
  %45 = call noundef ptr @_ZN32pxrInternal_v0_24__pxrReserved__12GfMatrixDataIfLi4ELi4EEixEi(ptr noundef nonnull align 4 dereferenceable(64) %44, i32 noundef 1)
  %46 = getelementptr inbounds float, ptr %45, i64 1
  store float %43, ptr %46, align 4
  %47 = getelementptr inbounds nuw %"class.pxrInternal_v0_24__pxrReserved__::GfMatrix4f", ptr %4, i32 0, i32 0
  %48 = call noundef ptr @_ZNK32pxrInternal_v0_24__pxrReserved__12GfMatrixDataIfLi4ELi4EEixEi(ptr noundef nonnull align 4 dereferenceable(64) %47, i32 noundef 1)
  %49 = getelementptr inbounds float, ptr %48, i64 2
  %50 = load float, ptr %49, align 4
  %51 = getelementptr inbounds nuw %"class.pxrInternal_v0_24__pxrReserved__::GfMatrix4f", ptr %0, i32 0, i32 0
  %52 = call noundef ptr @_ZN32pxrInternal_v0_24__pxrReserved__12GfMatrixDataIfLi4ELi4EEixEi(ptr noundef nonnull align 4 dereferenceable(64) %51, i32 noundef 2)
  %53 = getelementptr inbounds float, ptr %52, i64 1
  store float %50, ptr %53, align 4
  %54 = getelementptr inbounds nuw %"class.pxrInternal_v0_24__pxrReserved__::GfMatrix4f", ptr %4, i32 0, i32 0
  %55 = call noundef ptr @_ZNK32pxrInternal_v0_24__pxrReserved__12GfMatrixDataIfLi4ELi4EEixEi(ptr noundef nonnull align 4 dereferenceable(64) %54, i32 noundef 1)
  %56 = getelementptr inbounds float, ptr %55, i64 3
  %57 = load float, ptr %56, align 4
  %58 = getelementptr inbounds nuw %"class.pxrInternal_v0_24__pxrReserved__::GfMatrix4f", ptr %0, i32 0, i32 0
  %59 = call noundef ptr @_ZN32pxrInternal_v0_24__pxrReserved__12GfMatrixDataIfLi4ELi4EEixEi(ptr noundef nonnull align 4 dereferenceable(64) %58, i32 noundef 3)
  %60 = getelementptr inbounds float, ptr %59, i64 1
  store float %57, ptr %60, align 4
  %61 = getelementptr inbounds nuw %"class.pxrInternal_v0_24__pxrReserved__::GfMatrix4f", ptr %4, i32 0, i32 0
  %62 = call noundef ptr @_ZNK32pxrInternal_v0_24__pxrReserved__12GfMatrixDataIfLi4ELi4EEixEi(ptr noundef nonnull align 4 dereferenceable(64) %61, i32 noundef 2)
  %63 = getelementptr inbounds float, ptr %62, i64 0
  %64 = load float, ptr %63, align 4
  %65 = getelementptr inbounds nuw %"class.pxrInternal_v0_24__pxrReserved__::GfMatrix4f", ptr %0, i32 0, i32 0
  %66 = call noundef ptr @_ZN32pxrInternal_v0_24__pxrReserved__12GfMatrixDataIfLi4ELi4EEixEi(ptr noundef nonnull align 4 dereferenceable(64) %65, i32 noundef 0)
  %67 = getelementptr inbounds float, ptr %66, i64 2
  store float %64, ptr %67, align 4
  %68 = getelementptr inbounds nuw %"class.pxrInternal_v0_24__pxrReserved__::GfMatrix4f", ptr %4, i32 0, i32 0
  %69 = call noundef ptr @_ZNK32pxrInternal_v0_24__pxrReserved__12GfMatrixDataIfLi4ELi4EEixEi(ptr noundef nonnull align 4 dereferenceable(64) %68, i32 noundef 2)
  %70 = getelementptr inbounds float, ptr %69, i64 1
  %71 = load float, ptr %70, align 4
  %72 = getelementptr inbounds nuw %"class.pxrInternal_v0_24__pxrReserved__::GfMatrix4f", ptr %0, i32 0, i32 0
  %73 = call noundef ptr @_ZN32pxrInternal_v0_24__pxrReserved__12GfMatrixDataIfLi4ELi4EEixEi(ptr noundef nonnull align 4 dereferenceable(64) %72, i32 noundef 1)
  %74 = getelementptr inbounds float, ptr %73, i64 2
  store float %71, ptr %74, align 4
  %75 = getelementptr inbounds nuw %"class.pxrInternal_v0_24__pxrReserved__::GfMatrix4f", ptr %4, i32 0, i32 0
  %76 = call noundef ptr @_ZNK32pxrInternal_v0_24__pxrReserved__12GfMatrixDataIfLi4ELi4EEixEi(ptr noundef nonnull align 4 dereferenceable(64) %75, i32 noundef 2)
  %77 = getelementptr inbounds float, ptr %76, i64 2
  %78 = load float, ptr %77, align 4
  %79 = getelementptr inbounds nuw %"class.pxrInternal_v0_24__pxrReserved__::GfMatrix4f", ptr %0, i32 0, i32 0
  %80 = call noundef ptr @_ZN32pxrInternal_v0_24__pxrReserved__12GfMatrixDataIfLi4ELi4EEixEi(ptr noundef nonnull align 4 dereferenceable(64) %79, i32 noundef 2)
  %81 = getelementptr inbounds float, ptr %80, i64 2
  store float %78, ptr %81, align 4
  %82 = getelementptr inbounds nuw %"class.pxrInternal_v0_24__pxrReserved__::GfMatrix4f", ptr %4, i32 0, i32 0
  %83 = call noundef ptr @_ZNK32pxrInternal_v0_24__pxrReserved__12GfMatrixDataIfLi4ELi4EEixEi(ptr noundef nonnull align 4 dereferenceable(64) %82, i32 noundef 2)
  %84 = getelementptr inbounds float, ptr %83, i64 3
  %85 = load float, ptr %84, align 4
  %86 = getelementptr inbounds nuw %"class.pxrInternal_v0_24__pxrReserved__::GfMatrix4f", ptr %0, i32 0, i32 0
  %87 = call noundef ptr @_ZN32pxrInternal_v0_24__pxrReserved__12GfMatrixDataIfLi4ELi4EEixEi(ptr noundef nonnull align 4 dereferenceable(64) %86, i32 noundef 3)
  %88 = getelementptr inbounds float, ptr %87, i64 2
  store float %85, ptr %88, align 4
  %89 = getelementptr inbounds nuw %"class.pxrInternal_v0_24__pxrReserved__::GfMatrix4f", ptr %4, i32 0, i32 0
  %90 = call noundef ptr @_ZNK32pxrInternal_v0_24__pxrReserved__12GfMatrixDataIfLi4ELi4EEixEi(ptr noundef nonnull align 4 dereferenceable(64) %89, i32 noundef 3)
  %91 = getelementptr inbounds float, ptr %90, i64 0
  %92 = load float, ptr %91, align 4
  %93 = getelementptr inbounds nuw %"class.pxrInternal_v0_24__pxrReserved__::GfMatrix4f", ptr %0, i32 0, i32 0
  %94 = call noundef ptr @_ZN32pxrInternal_v0_24__pxrReserved__12GfMatrixDataIfLi4ELi4EEixEi(ptr noundef nonnull align 4 dereferenceable(64) %93, i32 noundef 0)
  %95 = getelementptr inbounds float, ptr %94, i64 3
  store float %92, ptr %95, align 4
  %96 = getelementptr inbounds nuw %"class.pxrInternal_v0_24__pxrReserved__::GfMatrix4f", ptr %4, i32 0, i32 0
  %97 = call noundef ptr @_ZNK32pxrInternal_v0_24__pxrReserved__12GfMatrixDataIfLi4ELi4EEixEi(ptr noundef nonnull align 4 dereferenceable(64) %96, i32 noundef 3)
  %98 = getelementptr inbounds float, ptr %97, i64 1
  %99 = load float, ptr %98, align 4
  %100 = getelementptr inbounds nuw %"class.pxrInternal_v0_24__pxrReserved__::GfMatrix4f", ptr %0, i32 0, i32 0
  %101 = call noundef ptr @_ZN32pxrInternal_v0_24__pxrReserved__12GfMatrixDataIfLi4ELi4EEixEi(ptr noundef nonnull align 4 dereferenceable(64) %100, i32 noundef 1)
  %102 = getelementptr inbounds float, ptr %101, i64 3
  store float %99, ptr %102, align 4
  %103 = getelementptr inbounds nuw %"class.pxrInternal_v0_24__pxrReserved__::GfMatrix4f", ptr %4, i32 0, i32 0
  %104 = call noundef ptr @_ZNK32pxrInternal_v0_24__pxrReserved__12GfMatrixDataIfLi4ELi4EEixEi(ptr noundef nonnull align 4 dereferenceable(64) %103, i32 noundef 3)
  %105 = getelementptr inbounds float, ptr %104, i64 2
  %106 = load float, ptr %105, align 4
  %107 = getelementptr inbounds nuw %"class.pxrInternal_v0_24__pxrReserved__::GfMatrix4f", ptr %0, i32 0, i32 0
  %108 = call noundef ptr @_ZN32pxrInternal_v0_24__pxrReserved__12GfMatrixDataIfLi4ELi4EEixEi(ptr noundef nonnull align 4 dereferenceable(64) %107, i32 noundef 2)
  %109 = getelementptr inbounds float, ptr %108, i64 3
  store float %106, ptr %109, align 4
  %110 = getelementptr inbounds nuw %"class.pxrInternal_v0_24__pxrReserved__::GfMatrix4f", ptr %4, i32 0, i32 0
  %111 = call noundef ptr @_ZNK32pxrInternal_v0_24__pxrReserved__12GfMatrixDataIfLi4ELi4EEixEi(ptr noundef nonnull align 4 dereferenceable(64) %110, i32 noundef 3)
  %112 = getelementptr inbounds float, ptr %111, i64 3
  %113 = load float, ptr %112, align 4
  %114 = getelementptr inbounds nuw %"class.pxrInternal_v0_24__pxrReserved__::GfMatrix4f", ptr %0, i32 0, i32 0
  %115 = call noundef ptr @_ZN32pxrInternal_v0_24__pxrReserved__12GfMatrixDataIfLi4ELi4EEixEi(ptr noundef nonnull align 4 dereferenceable(64) %114, i32 noundef 3)
  %116 = getelementptr inbounds float, ptr %115, i64 3
  store float %113, ptr %116, align 4
  ret void
}